target datalayout = "e-m:e-p270:32:32-p271:32:32-p272:64:64-i64:64-i128:128-f80:128-n8:16:32:64-S128"
target triple = "x86_64-pc-linux-gnu"

%struct.PlanState = type { i32, ptr, ptr, ptr, ptr, ptr, ptr, ptr, ptr, ptr, ptr, ptr, ptr, ptr, ptr, ptr, ptr, ptr, i8, ptr, ptr, ptr, ptr, ptr, i8, i8, i8, i8, i8, i8, i8, i8 }
%struct.BitmapHeapScanState = type { %struct.ScanState, ptr, ptr, i32, %struct.BitmapHeapScanInstrumentation, %struct.TBMIterator, i32, i32, i32, i8, ptr, ptr, i8, i32, i32 }
%struct.ScanState = type { %struct.PlanState, ptr, ptr, ptr }
%struct.BitmapHeapScanInstrumentation = type { i64, i64 }
%struct.TBMIterator = type { i8, %union.anon }
%union.anon = type { ptr }
%struct.ParallelContext = type { %struct.dlist_node, i32, i32, i32, i32, ptr, ptr, ptr, %struct.shm_toc_estimator, ptr, ptr, ptr, ptr, i32, ptr }
%struct.dlist_node = type { ptr, ptr }
%struct.shm_toc_estimator = type { i64, i64 }

; Function Attrs: nounwind uwtable
define dso_local void @ExecBitmapHeapEstimate(ptr noundef %0, ptr noundef %1) #0 {
  %3 = alloca ptr, align 8
  %4 = alloca ptr, align 8
  %5 = alloca i64, align 8
  store ptr %0, ptr %3, align 8
  store ptr %1, ptr %4, align 8
  call void @llvm.lifetime.start.p0(i64 8, ptr %5) #8
  store i64 48, ptr %5, align 8
  %6 = load ptr, ptr %3, align 8
  %7 = getelementptr inbounds nuw %struct.BitmapHeapScanState, ptr %6, i32 0, i32 0
  %8 = getelementptr inbounds nuw %struct.ScanState, ptr %7, i32 0, i32 0
  %9 = getelementptr inbounds nuw %struct.PlanState, ptr %8, i32 0, i32 5
  %10 = load ptr, ptr %9, align 8
  %11 = icmp ne ptr %10, null
  br i1 %11, label %12, label %27

12:                                               ; preds = %2
  %13 = load ptr, ptr %4, align 8
  %14 = getelementptr inbounds nuw %struct.ParallelContext, ptr %13, i32 0, i32 2
  %15 = load i32, ptr %14, align 4
  %16 = icmp sgt i32 %15, 0
  br i1 %16, label %17, label %27

17:                                               ; preds = %12
  %18 = load i64, ptr %5, align 8
  %19 = call i64 @add_size(i64 noundef %18, i64 noundef 8)
  store i64 %19, ptr %5, align 8
  %20 = load i64, ptr %5, align 8
  %21 = load ptr, ptr %4, align 8
  %22 = getelementptr inbounds nuw %struct.ParallelContext, ptr %21, i32 0, i32 2
  %23 = load i32, ptr %22, align 4
  %24 = sext i32 %23 to i64
  %25 = call i64 @mul_size(i64 noundef %24, i64 noundef 16)
  %26 = call i64 @add_size(i64 noundef %20, i64 noundef %25)
  store i64 %26, ptr %5, align 8
  br label %27

27:                                               ; preds = %17, %12, %2
  %28 = load ptr, ptr %4, align 8
  %29 = getelementptr inbounds nuw %struct.ParallelContext, ptr %28, i32 0, i32 8
  %30 = getelementptr inbounds nuw %struct.shm_toc_estimator, ptr %29, i32 0, i32 0
  %31 = load i64, ptr %30, align 8
  %32 = load i64, ptr %5, align 8
  %33 = add i64 %32, 31
  %34 = and i64 %33, -32
  %35 = call i64 @add_size(i64 noundef %31, i64 noundef %34)
  %36 = load ptr, ptr %4, align 8
  %37 = getelementptr inbounds nuw %struct.ParallelContext, ptr %36, i32 0, i32 8
  %38 = getelementptr inbounds nuw %struct.shm_toc_estimator, ptr %37, i32 0, i32 0
  store i64 %35, ptr %38, align 8
  %39 = load ptr, ptr %4, align 8
  %40 = getelementptr inbounds nuw %struct.ParallelContext, ptr %39, i32 0, i32 8
  %41 = getelementptr inbounds nuw %struct.shm_toc_estimator, ptr %40, i32 0, i32 1
  %42 = load i64, ptr %41, align 8
  %43 = call i64 @add_size(i64 noundef %42, i64 noundef 1)
  %44 = load ptr, ptr %4, align 8
  %45 = getelementptr inbounds nuw %struct.ParallelContext, ptr %44, i32 0, i32 8
  %46 = getelementptr inbounds nuw %struct.shm_toc_estimator, ptr %45, i32 0, i32 1
  store i64 %43, ptr %46, align 8
  call void @llvm.lifetime.end.p0(i64 8, ptr %5) #8
  ret void
}