; Function Attrs: nounwind uwtable
define dso_local void @ExecBitmapHeapEstimate(ptr noundef readonly captures(none) %0, ptr noundef captures(none) %1) local_unnamed_addr #0 {
  %3 = getelementptr inbounds nuw i8, ptr %0, i64 40
  %4 = load ptr, ptr %3, align 8
  %.not = icmp eq ptr %4, null
  br i1 %.not, label %17, label %5

5:                                                ; preds = %2
  %6 = getelementptr inbounds nuw i8, ptr %1, i64 20
  %7 = load i32, ptr %6, align 4
  %8 = icmp sgt i32 %7, 0
  br i1 %8, label %9, label %17

9:                                                ; preds = %5
  %10 = tail call i64 @add_size(i64 noundef 48, i64 noundef 8) #7
  %11 = load i32, ptr %6, align 4
  %12 = sext i32 %11 to i64
  %13 = tail call i64 @mul_size(i64 noundef %12, i64 noundef 16) #7
  %14 = tail call i64 @add_size(i64 noundef %10, i64 noundef %13) #7
  %15 = add i64 %14, 31
  %16 = and i64 %15, -32
  br label %17

17:                                               ; preds = %9, %5, %2
  %.0 = phi i64 [ %16, %9 ], [ 64, %5 ], [ 64, %2 ]
  %18 = getelementptr inbounds nuw i8, ptr %1, i64 56
  %19 = load i64, ptr %18, align 8
  %20 = tail call i64 @add_size(i64 noundef %19, i64 noundef %.0) #7
  store i64 %20, ptr %18, align 8
  %21 = getelementptr inbounds nuw i8, ptr %1, i64 64
  %22 = load i64, ptr %21, align 8
  %23 = tail call i64 @add_size(i64 noundef %22, i64 noundef 1) #7
  store i64 %23, ptr %21, align 8
  ret void
}